target datalayout = "e-m:e-p270:32:32-p271:32:32-p272:64:64-i64:64-i128:128-f80:128-n8:16:32:64-S128"
target triple = "x86_64-pc-linux-gnu"

%struct.part_record = type { i32, ptr, ptr, ptr, ptr, ptr, ptr, i32, ptr, ptr, ptr, ptr, ptr, i32, i64, i32, ptr, ptr, ptr, ptr, ptr, i32, i32, ptr, i32, i32, i64, i32, i32, i16, i32, i32, i32, i32, ptr, ptr, ptr, ptr, ptr, double, i16, i16, i16, i16, ptr, ptr, i16, i16, i32, i16, i32, i32, i32, i32, i16, ptr, ptr, ptr }
%struct.gs_part = type { ptr, i16, i32, ptr, i32, i32, ptr, i32, i32, ptr, ptr, i16, ptr }

@.str.6 = private unnamed_addr constant [7 x i8] c"gang.c\00", align 1
@gs_part_list = internal global ptr null, align 8
@num_sorted_part = internal global i32 0, align 4
@part_list = external global ptr, align 8
@__func__._build_parts = private unnamed_addr constant [13 x i8] c"_build_parts\00", align 1

; Function Attrs: nounwind uwtable
define internal void @_build_parts() #0 {
  %1 = alloca ptr, align 8
  %2 = alloca ptr, align 8
  %3 = alloca ptr, align 8
  %4 = alloca i32, align 4
  %5 = alloca i32, align 4
  call void @llvm.lifetime.start.p0(i64 8, ptr %1) #8
  call void @llvm.lifetime.start.p0(i64 8, ptr %2) #8
  call void @llvm.lifetime.start.p0(i64 8, ptr %3) #8
  call void @llvm.lifetime.start.p0(i64 4, ptr %4) #8
  br label %6

6:                                                ; preds = %0
  %7 = load ptr, ptr @gs_part_list, align 8
  %8 = icmp ne ptr %7, null
  br i1 %8, label %9, label %11

9:                                                ; preds = %6
  %10 = load ptr, ptr @gs_part_list, align 8
  call void @list_destroy(ptr noundef %10)
  br label %11

11:                                               ; preds = %9, %6
  store ptr null, ptr @gs_part_list, align 8
  br label %12

12:                                               ; preds = %11
  br label %13

13:                                               ; preds = %12
  store i32 0, ptr @num_sorted_part, align 4
  %14 = load ptr, ptr @part_list, align 8
  %15 = call i32 @list_count(ptr noundef %14)
  store i32 %15, ptr %4, align 4
  %16 = load i32, ptr %4, align 4
  %17 = icmp eq i32 %16, 0
  br i1 %17, label %18, label %19

18:                                               ; preds = %13
  store i32 1, ptr %5, align 4
  br label %44

19:                                               ; preds = %13
  %20 = call ptr @list_create(ptr noundef @_destroy_parts)
  store ptr %20, ptr @gs_part_list, align 8
  %21 = load ptr, ptr @part_list, align 8
  %22 = call ptr @list_iterator_create(ptr noundef %21)
  store ptr %22, ptr %1, align 8
  br label %23

23:                                               ; preds = %27, %19
  %24 = load ptr, ptr %1, align 8
  %25 = call ptr @list_next(ptr noundef %24)
  store ptr %25, ptr %2, align 8
  %26 = icmp ne ptr %25, null
  br i1 %26, label %27, label %42

27:                                               ; preds = %23
  %28 = call ptr @slurm_xcalloc(i64 noundef 1, i64 noundef 80, i1 noundef zeroext true, i1 noundef zeroext false, ptr noundef @.str.6, i32 noundef 299, ptr noundef @__func__._build_parts)
  store ptr %28, ptr %3, align 8
  %29 = load ptr, ptr %2, align 8
  %30 = getelementptr inbounds nuw %struct.part_record, ptr %29, i32 0, i32 34
  %31 = load ptr, ptr %30, align 8
  %32 = call ptr @xstrdup(ptr noundef %31)
  %33 = load ptr, ptr %3, align 8
  %34 = getelementptr inbounds nuw %struct.gs_part, ptr %33, i32 0, i32 0
  store ptr %32, ptr %34, align 8
  %35 = load ptr, ptr %2, align 8
  %36 = getelementptr inbounds nuw %struct.part_record, ptr %35, i32 0, i32 43
  %37 = load i16, ptr %36, align 2
  %38 = load ptr, ptr %3, align 8
  %39 = getelementptr inbounds nuw %struct.gs_part, ptr %38, i32 0, i32 1
  store i16 %37, ptr %39, align 8
  %40 = load ptr, ptr @gs_part_list, align 8
  %41 = load ptr, ptr %3, align 8
  call void @list_append(ptr noundef %40, ptr noundef %41)
  br label %23, !llvm.loop !8

42:                                               ; preds = %23
  %43 = load ptr, ptr %1, align 8
  call void @list_iterator_destroy(ptr noundef %43)
  store i32 0, ptr %5, align 4
  br label %44

44:                                               ; preds = %42, %18
  call void @llvm.lifetime.end.p0(i64 4, ptr %4) #8
  call void @llvm.lifetime.end.p0(i64 8, ptr %3) #8
  call void @llvm.lifetime.end.p0(i64 8, ptr %2) #8
  call void @llvm.lifetime.end.p0(i64 8, ptr %1) #8
  %45 = load i32, ptr %5, align 4
  switch i32 %45, label %47 [
    i32 0, label %46
    i32 1, label %46
  ]

46:                                               ; preds = %44, %44
  ret void

47:                                               ; preds = %44
  unreachable
}