; Function Attrs: nounwind uwtable
define internal fastcc void @_build_parts() unnamed_addr #0 {
  %1 = load ptr, ptr @gs_part_list, align 8
  %.not = icmp eq ptr %1, null
  br i1 %.not, label %3, label %2

2:                                                ; preds = %0
  tail call void @list_destroy(ptr noundef nonnull %1) #8
  br label %3

3:                                                ; preds = %2, %0
  store ptr null, ptr @gs_part_list, align 8
  %4 = load ptr, ptr @part_list, align 8
  %5 = tail call i32 @list_count(ptr noundef %4) #8
  %6 = icmp eq i32 %5, 0
  br i1 %6, label %22, label %7

7:                                                ; preds = %3
  %8 = tail call ptr @list_create(ptr noundef nonnull @_destroy_parts) #8
  store ptr %8, ptr @gs_part_list, align 8
  %9 = load ptr, ptr @part_list, align 8
  %10 = tail call ptr @list_iterator_create(ptr noundef %9) #8
  %11 = tail call ptr @list_next(ptr noundef %10) #8
  %.not89 = icmp eq ptr %11, null
  br i1 %.not89, label %._crit_edge, label %.lr.ph

.lr.ph:                                           ; preds = %7, %.lr.ph
  %12 = phi ptr [ %21, %.lr.ph ], [ %11, %7 ]
  %13 = tail call ptr @slurm_xcalloc(i64 noundef 1, i64 noundef 80, i1 noundef zeroext true, i1 noundef zeroext false, ptr noundef nonnull @.str.6, i32 noundef 299, ptr noundef nonnull @__func__._build_parts) #8
  %14 = getelementptr inbounds nuw i8, ptr %12, i64 232
  %15 = load ptr, ptr %14, align 8
  %16 = tail call ptr @xstrdup(ptr noundef %15) #8
  store ptr %16, ptr %13, align 8
  %17 = getelementptr inbounds nuw i8, ptr %12, i64 286
  %18 = load i16, ptr %17, align 2
  %19 = getelementptr inbounds nuw i8, ptr %13, i64 8
  store i16 %18, ptr %19, align 8
  %20 = load ptr, ptr @gs_part_list, align 8
  tail call void @list_append(ptr noundef %20, ptr noundef nonnull %13) #8
  %21 = tail call ptr @list_next(ptr noundef %10) #8
  %.not8 = icmp eq ptr %21, null
  br i1 %.not8, label %._crit_edge, label %.lr.ph, !llvm.loop !8

._crit_edge:                                      ; preds = %.lr.ph, %7
  tail call void @list_iterator_destroy(ptr noundef %10) #8
  br label %22

22:                                               ; preds = %3, %._crit_edge
  ret void
}